; ModuleID = '44/1095.c'
source_filename = "44/1095.c"
target datalayout = "e-m:e-p270:32:32-p271:32:32-p272:64:64-i64:64-f80:128-n8:16:32:64-S128"
target triple = "x86_64-pc-linux-gnu"

@.str = private unnamed_addr constant [3 x i8] c"%d\00", align 1
@.str.1 = private unnamed_addr constant [4 x i8] c"%d\0A\00", align 1

; Function Attrs: noinline nounwind uwtable
define dso_local i32 @main() #0 {
  %1 = alloca i32, align 4
  %2 = alloca i32, align 4
  %3 = alloca i32, align 4
  store i32 0, i32* %1, align 4
  store i32 0, i32* %3, align 4
  br label %4

4:                                                ; preds = %12, %0
  %5 = load i32, i32* %3, align 4
  %6 = icmp slt i32 %5, 6
  br i1 %6, label %7, label %15

7:                                                ; preds = %4
  %8 = call i32 (i8*, ...) @__isoc99_scanf(i8* getelementptr inbounds ([3 x i8], [3 x i8]* @.str, i64 0, i64 0), i32* %2)
  %9 = load i32, i32* %2, align 4
  %10 = call i32 @reverse(i32 %9)
  %11 = call i32 (i8*, ...) @printf(i8* getelementptr inbounds ([4 x i8], [4 x i8]* @.str.1, i64 0, i64 0), i32 %10)
  br label %12

12:                                               ; preds = %7
  %13 = load i32, i32* %3, align 4
  %14 = add nsw i32 %13, 1
  store i32 %14, i32* %3, align 4
  br label %4

15:                                               ; preds = %4
  %16 = load i32, i32* %1, align 4
  ret i32 %16
}

declare dso_local i32 @__isoc99_scanf(i8*, ...) #1

declare dso_local i32 @printf(i8*, ...) #1

; Function Attrs: noinline nounwind uwtable
define dso_local i32 @reverse(i32 %0) #0 {
  %2 = alloca i32, align 4
  %3 = alloca i32, align 4
  %4 = alloca i32, align 4
  store i32 %0, i32* %2, align 4
  store i32 0, i32* %3, align 4
  %5 = load i32, i32* %2, align 4
  %6 = icmp sge i32 %5, 0
  br i1 %6, label %7, label %20

7:                                                ; preds = %1
  br label %8

8:                                                ; preds = %11, %7
  %9 = load i32, i32* %2, align 4
  %10 = icmp ne i32 %9, 0
  br i1 %10, label %11, label %19

11:                                               ; preds = %8
  %12 = load i32, i32* %3, align 4
  %13 = mul nsw i32 %12, 10
  %14 = load i32, i32* %2, align 4
  %15 = srem i32 %14, 10
  %16 = add nsw i32 %13, %15
  store i32 %16, i32* %3, align 4
  %17 = load i32, i32* %2, align 4
  %18 = sdiv i32 %17, 10
  store i32 %18, i32* %2, align 4
  br label %8

19:                                               ; preds = %8
  br label %37

20:                                               ; preds = %1
  %21 = load i32, i32* %2, align 4
  %22 = sub nsw i32 0, %21
  store i32 %22, i32* %4, align 4
  br label %23

23:                                               ; preds = %26, %20
  %24 = load i32, i32* %4, align 4
  %25 = icmp ne i32 %24, 0
  br i1 %25, label %26, label %34

26:                                               ; preds = %23
  %27 = load i32, i32* %3, align 4
  %28 = mul nsw i32 %27, 10
  %29 = load i32, i32* %4, align 4
  %30 = srem i32 %29, 10
  %31 = add nsw i32 %28, %30
  store i32 %31, i32* %3, align 4
  %32 = load i32, i32* %4, align 4
  %33 = sdiv i32 %32, 10
  store i32 %33, i32* %4, align 4
  br label %23

34:                                               ; preds = %23
  %35 = load i32, i32* %3, align 4
  %36 = sub nsw i32 0, %35
  store i32 %36, i32* %3, align 4
  br label %37

37:                                               ; preds = %34, %19
  %38 = load i32, i32* %3, align 4
  ret i32 %38
}


!llvm.module.flags = !{!0}
!llvm.ident = !{!1}

!0 = !{i32 1, !"wchar_size", i32 4}
!1 = !{!"clang version 10.0.0-4ubuntu1 "}
